; Function Attrs: mustprogress nofree norecurse nosync nounwind null_pointer_is_valid sspstrong willreturn memory(argmem: readwrite) uwtable
define hidden void @cf_unmark_frame(ptr noundef captures(none) %0, ptr noundef captures(none) %1) local_unnamed_addr #18 {
  %3 = getelementptr inbounds nuw i8, ptr %1, i64 57
  %4 = load i16, ptr %3, align 1
  %5 = and i16 %4, 16
  %.not = icmp eq i16 %5, 0
  br i1 %.not, label %12, label %6

6:                                                ; preds = %2
  %7 = and i16 %4, -17
  store i16 %7, ptr %3, align 1
  %8 = getelementptr inbounds nuw i8, ptr %0, i64 92
  %9 = load i32, ptr %8, align 4
  %.not4 = icmp eq i32 %9, 0
  br i1 %.not4, label %12, label %10

10:                                               ; preds = %6
  %11 = add i32 %9, -1
  store i32 %11, ptr %8, align 4
  br label %12

12:                                               ; preds = %6, %10, %2
  ret void
}